target datalayout = "e-m:e-p270:32:32-p271:32:32-p272:64:64-i64:64-i128:128-f80:128-n8:16:32:64-S128"
target triple = "x86_64-pc-linux-gnu"

%struct.TiffEncoderContext = type { ptr, ptr, i32, i32, i32, i32, i32, i32, i32, ptr, i32, ptr, i32, ptr, i32, i32, [384 x i8], i32, ptr, ptr, i32, [2 x i16], ptr, i32 }

@.str.16 = private unnamed_addr constant [21 x i8] c"Buffer is too small\0A\00", align 1

; Function Attrs: inlinehint nounwind uwtable
define internal i32 @check_size(ptr noundef %0, i64 noundef %1) #4 {
  %3 = alloca i32, align 4
  %4 = alloca ptr, align 8
  %5 = alloca i64, align 8
  store ptr %0, ptr %4, align 8, !tbaa !29
  store i64 %1, ptr %5, align 8, !tbaa !84
  %6 = load ptr, ptr %4, align 8, !tbaa !29
  %7 = getelementptr inbounds nuw %struct.TiffEncoderContext, ptr %6, i32 0, i32 20
  %8 = load i32, ptr %7, align 8, !tbaa !69
  %9 = sext i32 %8 to i64
  %10 = load ptr, ptr %4, align 8, !tbaa !29
  %11 = getelementptr inbounds nuw %struct.TiffEncoderContext, ptr %10, i32 0, i32 18
  %12 = load ptr, ptr %11, align 8, !tbaa !67
  %13 = load ptr, ptr %12, align 8, !tbaa !65
  %14 = load ptr, ptr %4, align 8, !tbaa !29
  %15 = getelementptr inbounds nuw %struct.TiffEncoderContext, ptr %14, i32 0, i32 19
  %16 = load ptr, ptr %15, align 8, !tbaa !66
  %17 = ptrtoint ptr %13 to i64
  %18 = ptrtoint ptr %16 to i64
  %19 = sub i64 %17, %18
  %20 = load i64, ptr %5, align 8, !tbaa !84
  %21 = add i64 %19, %20
  %22 = icmp ult i64 %9, %21
  br i1 %22, label %23, label %39

23:                                               ; preds = %2
  %24 = load ptr, ptr %4, align 8, !tbaa !29
  %25 = getelementptr inbounds nuw %struct.TiffEncoderContext, ptr %24, i32 0, i32 19
  %26 = load ptr, ptr %25, align 8, !tbaa !66
  %27 = load ptr, ptr %4, align 8, !tbaa !29
  %28 = getelementptr inbounds nuw %struct.TiffEncoderContext, ptr %27, i32 0, i32 20
  %29 = load i32, ptr %28, align 8, !tbaa !69
  %30 = sext i32 %29 to i64
  %31 = getelementptr inbounds i8, ptr %26, i64 %30
  %32 = getelementptr inbounds i8, ptr %31, i64 1
  %33 = load ptr, ptr %4, align 8, !tbaa !29
  %34 = getelementptr inbounds nuw %struct.TiffEncoderContext, ptr %33, i32 0, i32 18
  %35 = load ptr, ptr %34, align 8, !tbaa !67
  store ptr %32, ptr %35, align 8, !tbaa !65
  %36 = load ptr, ptr %4, align 8, !tbaa !29
  %37 = getelementptr inbounds nuw %struct.TiffEncoderContext, ptr %36, i32 0, i32 1
  %38 = load ptr, ptr %37, align 8, !tbaa !31
  call void (ptr, i32, ptr, ...) @av_log(ptr noundef %38, i32 noundef 16, ptr noundef @.str.16)
  store i32 1, ptr %3, align 4
  br label %40

39:                                               ; preds = %2
  store i32 0, ptr %3, align 4
  br label %40

40:                                               ; preds = %39, %23
  %41 = load i32, ptr %3, align 4
  ret i32 %41
}