; Function Attrs: inlinehint nounwind uwtable
define internal fastcc range(i32 0, 2) i32 @check_size(ptr noundef readonly captures(none) %0, i64 noundef range(i64 -547608330240, 547608329986) %1) unnamed_addr #5 {
  %3 = getelementptr inbounds nuw i8, ptr %0, i64 504
  %4 = load i32, ptr %3, align 8, !tbaa !59
  %5 = sext i32 %4 to i64
  %6 = getelementptr inbounds nuw i8, ptr %0, i64 488
  %7 = load ptr, ptr %6, align 8, !tbaa !57
  %8 = load ptr, ptr %7, align 8, !tbaa !55
  %9 = getelementptr inbounds nuw i8, ptr %0, i64 496
  %10 = load ptr, ptr %9, align 8, !tbaa !56
  %11 = ptrtoint ptr %8 to i64
  %12 = ptrtoint ptr %10 to i64
  %13 = add i64 %1, %11
  %14 = sub i64 %13, %12
  %15 = icmp ugt i64 %14, %5
  br i1 %15, label %16, label %21

16:                                               ; preds = %2
  %17 = getelementptr inbounds i8, ptr %10, i64 %5
  %18 = getelementptr inbounds nuw i8, ptr %17, i64 1
  store ptr %18, ptr %7, align 8, !tbaa !55
  %19 = getelementptr inbounds nuw i8, ptr %0, i64 8
  %20 = load ptr, ptr %19, align 8, !tbaa !27
  tail call void (ptr, i32, ptr, ...) @av_log(ptr noundef %20, i32 noundef 16, ptr noundef nonnull @.str.16) #10
  br label %21

21:                                               ; preds = %2, %16
  %.0 = phi i32 [ 1, %16 ], [ 0, %2 ]
  ret i32 %.0
}